Certificate:
    Data:
        Version: 1 (0x0)
        Serial Number:
            e4:d2:5d:38:ab:61:5c:02
    Signature Algorithm: sha256WithRSAEncryption
        Issuer: C = CA, ST = Ontario, L = London, O = Western, OU = ECE, CN = Mustafa, emailAddress = mustafadawoud97@gmail.com
        Validity
            Not Before: Apr  6 20:55:25 2018 GMT
            Not After : Apr  6 20:55:25 2019 GMT
        Subject: C = CA, ST = Ontario, L = London, O = Western, OU = ECE, CN = Mustafa, emailAddress = mustafadawoud97@gmail.com
        Subject Public Key Info:
            Public Key Algorithm: rsaEncryption
                Public-Key: (2048 bit)
                Modulus:
                    00:a5:90:35:56:cc:b1:1c:0c:e3:aa:b1:a1:7f:00:
                    79:70:05:c9:44:91:da:4c:62:4d:7b:62:e3:ff:70:
                    49:27:d4:ed:eb:5a:67:23:03:ed:18:1a:1b:7f:6e:
                    84:8b:8d:20:47:e3:dc:04:0c:59:1c:40:0d:d9:d7:
                    ce:f1:ec:3c:1d:55:19:d2:4e:15:31:ca:bd:e5:7e:
                    a2:7a:35:10:c4:8b:bd:7d:6f:97:16:ac:de:17:93:
                    35:e1:eb:fe:00:04:25:58:4d:d7:20:aa:c7:30:dd:
                    3d:27:49:ea:79:b9:2b:23:83:e0:7b:0b:b4:d5:4b:
                    c6:86:00:f1:3a:d3:eb:dd:b2:1d:f5:bd:5f:d3:da:
                    79:32:17:20:18:4d:5b:75:e5:47:4b:c7:3a:6e:7c:
                    8a:c8:48:a4:96:0f:35:40:d4:83:5e:0d:76:fb:86:
                    01:11:ee:52:fe:3f:c3:fc:66:94:e3:65:b6:6d:ea:
                    63:6c:dd:4e:ca:68:52:51:72:8b:64:e0:fa:d1:75:
                    fc:65:90:2e:f2:b7:0e:22:19:f5:58:d8:58:89:9d:
                    a8:43:70:7d:95:33:43:a5:5d:a6:a8:3f:13:b3:1e:
                    bd:8f:5c:b7:46:69:12:8d:59:49:dc:71:65:46:57:
                    79:71:98:f2:4e:8f:dd:15:43:11:fd:6e:78:7e:f1:
                    32:ab
                Exponent: 65537 (0x10001)
    Signature Algorithm: sha256WithRSAEncryption
         87:15:32:e6:de:6d:28:73:e7:04:f3:0c:96:20:76:c7:88:d8:
         01:72:e9:6a:db:ec:81:e4:d0:d0:64:aa:49:cb:aa:ed:f7:7f:
         62:b1:0f:35:6a:26:75:e4:16:1e:2b:04:9b:7c:3a:b2:58:72:
         23:72:81:1e:35:e8:ee:0c:c5:80:c3:2a:44:4d:c6:1e:0d:6b:
         cd:02:e9:5d:f7:fd:63:41:4c:b7:45:5d:1d:80:b4:6d:5a:4f:
         da:24:cd:7c:58:ba:07:b3:ee:6e:41:fd:e7:54:7b:12:09:71:
         36:2c:34:18:05:68:09:61:5b:ce:82:ec:6a:da:b7:4c:67:4a:
         ef:0c:f6:2e:56:f2:5f:fe:41:91:12:6a:69:b7:e1:16:c9:0d:
         9b:8b:8a:db:92:cc:14:f6:c4:ea:cc:31:30:b7:99:5e:b0:e5:
         3b:f4:13:0c:f3:46:3b:2f:21:56:a7:f2:92:d3:a9:e9:94:6d:
         a2:f0:7b:a5:f1:76:d4:3c:ea:eb:c2:75:2d:d4:40:fa:1f:62:
         ac:c9:2d:32:be:a0:9b:94:2a:08:6e:05:df:38:6b:3d:4f:3a:
         57:d1:75:b9:19:06:71:4c:fe:2b:3d:aa:ee:c0:0c:96:fc:44:
         1c:65:9e:bb:01:b4:4a:50:3f:a4:a9:8c:68:1c:cd:b6:9c:1f:
         d1:a9:29:26
-----BEGIN CERTIFICATE-----
MIIDljCCAn4CCQDk0l04q2FcAjANBgkqhkiG9w0BAQsFADCBjDELMAkGA1UEBhMC
Q0ExEDAOBgNVBAgMB09udGFyaW8xDzANBgNVBAcMBkxvbmRvbjEQMA4GA1UECgwH
V2VzdGVybjEMMAoGA1UECwwDRUNFMRAwDgYDVQQDDAdNdXN0YWZhMSgwJgYJKoZI
hvcNAQkBFhltdXN0YWZhZGF3b3VkOTdAZ21haWwuY29tMB4XDTE4MDQwNjIwNTUy
NVoXDTE5MDQwNjIwNTUyNVowgYwxCzAJBgNVBAYTAkNBMRAwDgYDVQQIDAdPbnRh
cmlvMQ8wDQYDVQQHDAZMb25kb24xEDAOBgNVBAoMB1dlc3Rlcm4xDDAKBgNVBAsM
A0VDRTEQMA4GA1UEAwwHTXVzdGFmYTEoMCYGCSqGSIb3DQEJARYZbXVzdGFmYWRh
d291ZDk3QGdtYWlsLmNvbTCCASIwDQYJKoZIhvcNAQEBBQADggEPADCCAQoCggEB
AKWQNVbMsRwM46qxoX8AeXAFyUSR2kxiTXti4/9wSSfU7etaZyMD7RgaG39uhIuN
IEfj3AQMWRxADdnXzvHsPB1VGdJOFTHKveV+ono1EMSLvX1vlxas3heTNeHr/gAE
JVhN1yCqxzDdPSdJ6nm5KyOD4HsLtNVLxoYA8TrT692yHfW9X9PaeTIXIBhNW3Xl
R0vHOm58ishIpJYPNUDUg14NdvuGARHuUv4/w/xmlONltm3qY2zdTspoUlFyi2Tg
+tF1/GWQLvK3DiIZ9VjYWImdqENwfZUzQ6Vdpqg/E7MevY9ct0ZpEo1ZSdxxZUZX
eXGY8k6P3RVDEf1ueH7xMqsCAwEAATANBgkqhkiG9w0BAQsFAAOCAQEAhxUy5t5t
KHPnBPMMliB2x4jYAXLpatvsgeTQ0GSqScuq7fd/YrEPNWomdeQWHisEm3w6slhy
I3KBHjXo7gzFgMMqRE3GHg1rzQLpXff9Y0FMt0VdHYC0bVpP2iTNfFi6B7PubkH9
51R7EglxNiw0GAVoCWFbzoLsatq3TGdK7wz2LlbyX/5BkRJqabfhFskNm4uK25LM
FPbE6swxMLeZXrDlO/QTDPNGOy8hVqfyktOp6ZRtovB7pfF21Dzq68J1LdRA+h9i
rMktMr6gm5QqCG4F3zhrPU86V9F1uRkGcUz+Kz2q7sAMlvxEHGWeuwG0SlA/pKmM
aBzNtpwf0akpJg==
-----END CERTIFICATE-----
